target datalayout = "e-m:e-p270:32:32-p271:32:32-p272:64:64-i64:64-i128:128-f80:128-n8:16:32:64-S128"
target triple = "x86_64-pc-linux-gnu"

%struct.FunctionCallInfoBaseData = type { ptr, ptr, ptr, i32, i8, i16, [0 x %struct.NullableDatum] }
%struct.NullableDatum = type { i64, i8 }
%struct.int2vector = type { i32, i32, i32, i32, i32, i32, [0 x i16] }
%struct.anon = type { i32, [0 x i8] }

@.str = private unnamed_addr constant [39 x i8] c"invalid input syntax for type %s: \22%s\22\00", align 1
@.str.1 = private unnamed_addr constant [9 x i8] c"smallint\00", align 1
@.str.2 = private unnamed_addr constant [6 x i8] c"int.c\00", align 1
@__func__.int2vectorin = private unnamed_addr constant [13 x i8] c"int2vectorin\00", align 1
@.str.3 = private unnamed_addr constant [39 x i8] c"value \22%s\22 is out of range for type %s\00", align 1

; Function Attrs: inlinehint nounwind uwtable
define internal ptr @DatumGetPointer(i64 noundef %0) #2 {
  %2 = alloca i64, align 8
  store i64 %0, ptr %2, align 8
  %3 = load i64, ptr %2, align 8
  %4 = inttoptr i64 %3 to ptr
  ret ptr %4
}

; Function Attrs: inlinehint nounwind uwtable
define internal i64 @PointerGetDatum(ptr noundef %0) #2 {
  %2 = alloca ptr, align 8
  store ptr %0, ptr %2, align 8
  %3 = load ptr, ptr %2, align 8
  %4 = ptrtoint ptr %3 to i64
  ret i64 %4
}

; Function Attrs: inlinehint nounwind uwtable
define internal ptr @DatumGetCString(i64 noundef %0) #2 {
  %2 = alloca i64, align 8
  store i64 %0, ptr %2, align 8
  %3 = load i64, ptr %2, align 8
  %4 = call ptr @DatumGetPointer(i64 noundef %3)
  ret ptr %4
}

; Function Attrs: nounwind uwtable
define dso_local i64 @int2vectorin(ptr noundef %0) #0 {
  %2 = alloca i64, align 8
  %3 = alloca ptr, align 8
  %4 = alloca ptr, align 8
  %5 = alloca ptr, align 8
  %6 = alloca ptr, align 8
  %7 = alloca i32, align 4
  %8 = alloca i32, align 4
  %9 = alloca i64, align 8
  %10 = alloca ptr, align 8
  %11 = alloca i32, align 4
  %12 = alloca ptr, align 8
  %13 = alloca ptr, align 8
  %14 = alloca ptr, align 8
  store ptr %0, ptr %3, align 8
  call void @llvm.lifetime.start.p0(i64 8, ptr %4) #10
  %15 = load ptr, ptr %3, align 8
  %16 = getelementptr inbounds nuw %struct.FunctionCallInfoBaseData, ptr %15, i32 0, i32 6
  %17 = getelementptr inbounds [0 x %struct.NullableDatum], ptr %16, i64 0, i64 0
  %18 = getelementptr inbounds nuw %struct.NullableDatum, ptr %17, i32 0, i32 0
  %19 = load i64, ptr %18, align 8
  %20 = call ptr @DatumGetCString(i64 noundef %19)
  store ptr %20, ptr %4, align 8
  call void @llvm.lifetime.start.p0(i64 8, ptr %5) #10
  %21 = load ptr, ptr %3, align 8
  %22 = getelementptr inbounds nuw %struct.FunctionCallInfoBaseData, ptr %21, i32 0, i32 1
  %23 = load ptr, ptr %22, align 8
  store ptr %23, ptr %5, align 8
  call void @llvm.lifetime.start.p0(i64 8, ptr %6) #10
  call void @llvm.lifetime.start.p0(i64 4, ptr %7) #10
  call void @llvm.lifetime.start.p0(i64 4, ptr %8) #10
  store i32 32, ptr %7, align 4
  %24 = load i32, ptr %7, align 4
  %25 = sext i32 %24 to i64
  %26 = mul i64 %25, 2
  %27 = add i64 24, %26
  %28 = call ptr @palloc0(i64 noundef %27)
  store ptr %28, ptr %6, align 8
  store i32 0, ptr %8, align 4
  br label %29

29:                                               ; preds = %158, %1
  call void @llvm.lifetime.start.p0(i64 8, ptr %9) #10
  call void @llvm.lifetime.start.p0(i64 8, ptr %10) #10
  br label %30

30:                                               ; preds = %49, %29
  %31 = load ptr, ptr %4, align 8
  %32 = load i8, ptr %31, align 1
  %33 = sext i8 %32 to i32
  %34 = icmp ne i32 %33, 0
  br i1 %34, label %35, label %47

35:                                               ; preds = %30
  %36 = call ptr @__ctype_b_loc() #11
  %37 = load ptr, ptr %36, align 8
  %38 = load ptr, ptr %4, align 8
  %39 = load i8, ptr %38, align 1
  %40 = zext i8 %39 to i32
  %41 = sext i32 %40 to i64
  %42 = getelementptr inbounds i16, ptr %37, i64 %41
  %43 = load i16, ptr %42, align 2
  %44 = zext i16 %43 to i32
  %45 = and i32 %44, 8192
  %46 = icmp ne i32 %45, 0
  br label %47

47:                                               ; preds = %35, %30
  %48 = phi i1 [ false, %30 ], [ %46, %35 ]
  br i1 %48, label %49, label %52

49:                                               ; preds = %47
  %50 = load ptr, ptr %4, align 8
  %51 = getelementptr inbounds nuw i8, ptr %50, i32 1
  store ptr %51, ptr %4, align 8
  br label %30, !llvm.loop !4

52:                                               ; preds = %47
  %53 = load ptr, ptr %4, align 8
  %54 = load i8, ptr %53, align 1
  %55 = sext i8 %54 to i32
  %56 = icmp eq i32 %55, 0
  br i1 %56, label %57, label %58

57:                                               ; preds = %52
  store i32 2, ptr %11, align 4
  br label %155

58:                                               ; preds = %52
  %59 = load i32, ptr %8, align 4
  %60 = load i32, ptr %7, align 4
  %61 = icmp sge i32 %59, %60
  br i1 %61, label %62, label %71

62:                                               ; preds = %58
  %63 = load i32, ptr %7, align 4
  %64 = mul i32 %63, 2
  store i32 %64, ptr %7, align 4
  %65 = load ptr, ptr %6, align 8
  %66 = load i32, ptr %7, align 4
  %67 = sext i32 %66 to i64
  %68 = mul i64 %67, 2
  %69 = add i64 24, %68
  %70 = call ptr @repalloc(ptr noundef %65, i64 noundef %69)
  store ptr %70, ptr %6, align 8
  br label %71

71:                                               ; preds = %62, %58
  %72 = call ptr @__errno_location() #11
  store i32 0, ptr %72, align 4
  %73 = load ptr, ptr %4, align 8
  %74 = call i64 @strtol(ptr noundef %73, ptr noundef %10, i32 noundef 10) #10
  store i64 %74, ptr %9, align 8
  %75 = load ptr, ptr %4, align 8
  %76 = load ptr, ptr %10, align 8
  %77 = icmp eq ptr %75, %76
  br i1 %77, label %78, label %94

78:                                               ; preds = %71
  br label %79

79:                                               ; preds = %78
  br label %80

80:                                               ; preds = %79
  call void @llvm.lifetime.start.p0(i64 8, ptr %12) #10
  %81 = load ptr, ptr %5, align 8
  store ptr %81, ptr %12, align 8
  %82 = load ptr, ptr %12, align 8
  %83 = call zeroext i1 @errsave_start(ptr noundef %82, ptr noundef null)
  br i1 %83, label %84, label %89

84:                                               ; preds = %80
  %85 = call i32 @errcode(i32 noundef 33685634)
  %86 = load ptr, ptr %4, align 8
  %87 = call i32 (ptr, ...) @errmsg(ptr noundef @.str, ptr noundef @.str.1, ptr noundef %86)
  %88 = load ptr, ptr %12, align 8
  call void @errsave_finish(ptr noundef %88, ptr noundef @.str.2, i32 noundef 175, ptr noundef @__func__.int2vectorin)
  br label %89

89:                                               ; preds = %84, %80
  call void @llvm.lifetime.end.p0(i64 8, ptr %12) #10
  br label %90

90:                                               ; preds = %89
  br label %91

91:                                               ; preds = %90
  store i64 0, ptr %2, align 8
  store i32 1, ptr %11, align 4
  br label %155

92:                                               ; No predecessors!
  br label %93

93:                                               ; preds = %92
  br label %94

94:                                               ; preds = %93, %71
  %95 = call ptr @__errno_location() #11
  %96 = load i32, ptr %95, align 4
  %97 = icmp eq i32 %96, 34
  br i1 %97, label %104, label %98

98:                                               ; preds = %94
  %99 = load i64, ptr %9, align 8
  %100 = icmp slt i64 %99, -32768
  br i1 %100, label %104, label %101

101:                                              ; preds = %98
  %102 = load i64, ptr %9, align 8
  %103 = icmp sgt i64 %102, 32767
  br i1 %103, label %104, label %120

104:                                              ; preds = %101, %98, %94
  br label %105

105:                                              ; preds = %104
  br label %106

106:                                              ; preds = %105
  call void @llvm.lifetime.start.p0(i64 8, ptr %13) #10
  %107 = load ptr, ptr %5, align 8
  store ptr %107, ptr %13, align 8
  %108 = load ptr, ptr %13, align 8
  %109 = call zeroext i1 @errsave_start(ptr noundef %108, ptr noundef null)
  br i1 %109, label %110, label %115

110:                                              ; preds = %106
  %111 = call i32 @errcode(i32 noundef 50331778)
  %112 = load ptr, ptr %4, align 8
  %113 = call i32 (ptr, ...) @errmsg(ptr noundef @.str.3, ptr noundef %112, ptr noundef @.str.1)
  %114 = load ptr, ptr %13, align 8
  call void @errsave_finish(ptr noundef %114, ptr noundef @.str.2, i32 noundef 181, ptr noundef @__func__.int2vectorin)
  br label %115

115:                                              ; preds = %110, %106
  call void @llvm.lifetime.end.p0(i64 8, ptr %13) #10
  br label %116

116:                                              ; preds = %115
  br label %117

117:                                              ; preds = %116
  store i64 0, ptr %2, align 8
  store i32 1, ptr %11, align 4
  br label %155

118:                                              ; No predecessors!
  br label %119

119:                                              ; preds = %118
  br label %120

120:                                              ; preds = %119, %101
  %121 = load ptr, ptr %10, align 8
  %122 = load i8, ptr %121, align 1
  %123 = sext i8 %122 to i32
  %124 = icmp ne i32 %123, 0
  br i1 %124, label %125, label %146

125:                                              ; preds = %120
  %126 = load ptr, ptr %10, align 8
  %127 = load i8, ptr %126, align 1
  %128 = sext i8 %127 to i32
  %129 = icmp ne i32 %128, 32
  br i1 %129, label %130, label %146

130:                                              ; preds = %125
  br label %131

131:                                              ; preds = %130
  br label %132

132:                                              ; preds = %131
  call void @llvm.lifetime.start.p0(i64 8, ptr %14) #10
  %133 = load ptr, ptr %5, align 8
  store ptr %133, ptr %14, align 8
  %134 = load ptr, ptr %14, align 8
  %135 = call zeroext i1 @errsave_start(ptr noundef %134, ptr noundef null)
  br i1 %135, label %136, label %141

136:                                              ; preds = %132
  %137 = call i32 @errcode(i32 noundef 33685634)
  %138 = load ptr, ptr %4, align 8
  %139 = call i32 (ptr, ...) @errmsg(ptr noundef @.str, ptr noundef @.str.1, ptr noundef %138)
  %140 = load ptr, ptr %14, align 8
  call void @errsave_finish(ptr noundef %140, ptr noundef @.str.2, i32 noundef 187, ptr noundef @__func__.int2vectorin)
  br label %141

141:                                              ; preds = %136, %132
  call void @llvm.lifetime.end.p0(i64 8, ptr %14) #10
  br label %142

142:                                              ; preds = %141
  br label %143

143:                                              ; preds = %142
  store i64 0, ptr %2, align 8
  store i32 1, ptr %11, align 4
  br label %155

144:                                              ; No predecessors!
  br label %145

145:                                              ; preds = %144
  br label %146

146:                                              ; preds = %145, %125, %120
  %147 = load i64, ptr %9, align 8
  %148 = trunc i64 %147 to i16
  %149 = load ptr, ptr %6, align 8
  %150 = getelementptr inbounds nuw %struct.int2vector, ptr %149, i32 0, i32 6
  %151 = load i32, ptr %8, align 4
  %152 = sext i32 %151 to i64
  %153 = getelementptr inbounds [0 x i16], ptr %150, i64 0, i64 %152
  store i16 %148, ptr %153, align 2
  %154 = load ptr, ptr %10, align 8
  store ptr %154, ptr %4, align 8
  store i32 0, ptr %11, align 4
  br label %155

155:                                              ; preds = %146, %143, %117, %91, %57
  call void @llvm.lifetime.end.p0(i64 8, ptr %10) #10
  call void @llvm.lifetime.end.p0(i64 8, ptr %9) #10
  %156 = load i32, ptr %11, align 4
  switch i32 %156, label %183 [
    i32 0, label %157
    i32 2, label %161
  ]

157:                                              ; preds = %155
  br label %158

158:                                              ; preds = %157
  %159 = load i32, ptr %8, align 4
  %160 = add i32 %159, 1
  store i32 %160, ptr %8, align 4
  br label %29

161:                                              ; preds = %155
  %162 = load i32, ptr %8, align 4
  %163 = sext i32 %162 to i64
  %164 = mul i64 %163, 2
  %165 = add i64 24, %164
  %166 = trunc i64 %165 to i32
  %167 = shl i32 %166, 2
  %168 = load ptr, ptr %6, align 8
  %169 = getelementptr inbounds nuw %struct.anon, ptr %168, i32 0, i32 0
  store i32 %167, ptr %169, align 4
  %170 = load ptr, ptr %6, align 8
  %171 = getelementptr inbounds nuw %struct.int2vector, ptr %170, i32 0, i32 1
  store i32 1, ptr %171, align 4
  %172 = load ptr, ptr %6, align 8
  %173 = getelementptr inbounds nuw %struct.int2vector, ptr %172, i32 0, i32 2
  store i32 0, ptr %173, align 4
  %174 = load ptr, ptr %6, align 8
  %175 = getelementptr inbounds nuw %struct.int2vector, ptr %174, i32 0, i32 3
  store i32 21, ptr %175, align 4
  %176 = load i32, ptr %8, align 4
  %177 = load ptr, ptr %6, align 8
  %178 = getelementptr inbounds nuw %struct.int2vector, ptr %177, i32 0, i32 4
  store i32 %176, ptr %178, align 4
  %179 = load ptr, ptr %6, align 8
  %180 = getelementptr inbounds nuw %struct.int2vector, ptr %179, i32 0, i32 5
  store i32 0, ptr %180, align 4
  %181 = load ptr, ptr %6, align 8
  %182 = call i64 @PointerGetDatum(ptr noundef %181)
  store i64 %182, ptr %2, align 8
  store i32 1, ptr %11, align 4
  br label %183

183:                                              ; preds = %161, %155
  call void @llvm.lifetime.end.p0(i64 4, ptr %8) #10
  call void @llvm.lifetime.end.p0(i64 4, ptr %7) #10
  call void @llvm.lifetime.end.p0(i64 8, ptr %6) #10
  call void @llvm.lifetime.end.p0(i64 8, ptr %5) #10
  call void @llvm.lifetime.end.p0(i64 8, ptr %4) #10
  %184 = load i64, ptr %2, align 8
  ret i64 %184
}