; Function Attrs: nounwind uwtable
define dso_local noundef i64 @int2vectorin(ptr noundef readonly captures(none) %0) local_unnamed_addr #0 {
  %2 = alloca ptr, align 8
  %3 = getelementptr inbounds nuw i8, ptr %0, i64 32
  %4 = load i64, ptr %3, align 8
  %5 = inttoptr i64 %4 to ptr
  %6 = getelementptr inbounds nuw i8, ptr %0, i64 8
  %7 = load ptr, ptr %6, align 8
  %8 = tail call ptr @palloc0(i64 noundef 88) #13
  call void @llvm.lifetime.start.p0(i64 8, ptr nonnull %2) #13
  %9 = load i8, ptr %5, align 1
  %.not8490 = icmp eq i8 %9, 0
  br i1 %.not8490, label %._crit_edge, label %.lr.ph.lr.ph

.lr.ph.lr.ph:                                     ; preds = %1
  %10 = tail call ptr @__ctype_b_loc() #14
  br label %.lr.ph

.lr.ph:                                           ; preds = %.lr.ph.lr.ph, %55
  %11 = phi i8 [ %9, %.lr.ph.lr.ph ], [ %62, %55 ]
  %.04594 = phi ptr [ %5, %.lr.ph.lr.ph ], [ %60, %55 ]
  %.04893 = phi ptr [ %8, %.lr.ph.lr.ph ], [ %.250, %55 ]
  %.05292 = phi i32 [ 32, %.lr.ph.lr.ph ], [ %.254, %55 ]
  %.05591 = phi i32 [ 0, %.lr.ph.lr.ph ], [ %61, %55 ]
  %12 = load ptr, ptr %10, align 8
  br label %13

13:                                               ; preds = %.lr.ph, %19
  %14 = phi i8 [ %11, %.lr.ph ], [ %21, %19 ]
  %.14685 = phi ptr [ %.04594, %.lr.ph ], [ %20, %19 ]
  %15 = zext i8 %14 to i64
  %16 = getelementptr inbounds nuw i16, ptr %12, i64 %15
  %17 = load i16, ptr %16, align 2
  %18 = and i16 %17, 8192
  %.not59 = icmp eq i16 %18, 0
  br i1 %.not59, label %.critedge, label %19

19:                                               ; preds = %13
  %20 = getelementptr inbounds nuw i8, ptr %.14685, i64 1
  %21 = load i8, ptr %20, align 1
  %.not = icmp eq i8 %21, 0
  br i1 %.not, label %._crit_edge, label %13, !llvm.loop !7

.critedge:                                        ; preds = %13
  %.not60 = icmp slt i32 %.05591, %.05292
  br i1 %.not60, label %28, label %22

22:                                               ; preds = %.critedge
  %23 = shl i32 %.05292, 1
  %24 = sext i32 %23 to i64
  %25 = shl nsw i64 %24, 1
  %26 = add nsw i64 %25, 24
  %27 = tail call ptr @repalloc(ptr noundef %.04893, i64 noundef %26) #13
  br label %28

28:                                               ; preds = %22, %.critedge
  %.254 = phi i32 [ %23, %22 ], [ %.05292, %.critedge ]
  %.250 = phi ptr [ %27, %22 ], [ %.04893, %.critedge ]
  %29 = tail call ptr @__errno_location() #14
  store i32 0, ptr %29, align 4
  %30 = call i64 @strtol(ptr noundef nonnull %.14685, ptr noundef nonnull %2, i32 noundef 10) #13
  %31 = load ptr, ptr %2, align 8
  %32 = icmp eq ptr %.14685, %31
  br i1 %32, label %33, label %38

33:                                               ; preds = %28
  %34 = tail call zeroext i1 @errsave_start(ptr noundef %7, ptr noundef null) #13
  br i1 %34, label %35, label %.thread

35:                                               ; preds = %33
  %36 = tail call i32 @errcode(i32 noundef 33685634) #13
  %37 = tail call i32 (ptr, ...) @errmsg(ptr noundef nonnull @.str, ptr noundef nonnull @.str.1, ptr noundef nonnull %.14685) #13
  br label %.thread.sink.split

38:                                               ; preds = %28
  %39 = load i32, ptr %29, align 4
  %40 = icmp eq i32 %39, 34
  %41 = add i64 %30, -32768
  %42 = icmp ult i64 %41, -65536
  %or.cond3 = select i1 %40, i1 true, i1 %42
  br i1 %or.cond3, label %43, label %48

43:                                               ; preds = %38
  %44 = tail call zeroext i1 @errsave_start(ptr noundef %7, ptr noundef null) #13
  br i1 %44, label %45, label %.thread

45:                                               ; preds = %43
  %46 = tail call i32 @errcode(i32 noundef 50331778) #13
  %47 = tail call i32 (ptr, ...) @errmsg(ptr noundef nonnull @.str.3, ptr noundef nonnull %.14685, ptr noundef nonnull @.str.1) #13
  br label %.thread.sink.split

48:                                               ; preds = %38
  %49 = load i8, ptr %31, align 1
  switch i8 %49, label %50 [
    i8 0, label %55
    i8 32, label %55
  ]

50:                                               ; preds = %48
  %51 = tail call zeroext i1 @errsave_start(ptr noundef %7, ptr noundef null) #13
  br i1 %51, label %52, label %.thread

52:                                               ; preds = %50
  %53 = tail call i32 @errcode(i32 noundef 33685634) #13
  %54 = tail call i32 (ptr, ...) @errmsg(ptr noundef nonnull @.str, ptr noundef nonnull @.str.1, ptr noundef nonnull %.14685) #13
  br label %.thread.sink.split

.thread.sink.split:                               ; preds = %52, %45, %35
  %.sink = phi i32 [ 175, %35 ], [ 181, %45 ], [ 187, %52 ]
  tail call void @errsave_finish(ptr noundef %7, ptr noundef nonnull @.str.2, i32 noundef %.sink, ptr noundef nonnull @__func__.int2vectorin) #13
  br label %.thread

.thread:                                          ; preds = %.thread.sink.split, %33, %43, %50
  call void @llvm.lifetime.end.p0(i64 8, ptr nonnull %2) #13
  br label %71

55:                                               ; preds = %48, %48
  %56 = trunc nsw i64 %30 to i16
  %57 = getelementptr inbounds nuw i8, ptr %.250, i64 24
  %58 = sext i32 %.05591 to i64
  %59 = getelementptr inbounds [0 x i16], ptr %57, i64 0, i64 %58
  store i16 %56, ptr %59, align 2
  %60 = load ptr, ptr %2, align 8
  call void @llvm.lifetime.end.p0(i64 8, ptr nonnull %2) #13
  %61 = add i32 %.05591, 1
  call void @llvm.lifetime.start.p0(i64 8, ptr nonnull %2) #13
  %62 = load i8, ptr %60, align 1
  %.not84 = icmp eq i8 %62, 0
  br i1 %.not84, label %._crit_edge, label %.lr.ph

._crit_edge:                                      ; preds = %55, %19, %1
  %.055.lcssa = phi i32 [ 0, %1 ], [ %.05591, %19 ], [ %61, %55 ]
  %.048.lcssa = phi ptr [ %8, %1 ], [ %.04893, %19 ], [ %.250, %55 ]
  call void @llvm.lifetime.end.p0(i64 8, ptr nonnull %2) #13
  %63 = shl i32 %.055.lcssa, 3
  %64 = add i32 %63, 96
  store i32 %64, ptr %.048.lcssa, align 4
  %65 = getelementptr inbounds nuw i8, ptr %.048.lcssa, i64 4
  store i32 1, ptr %65, align 4
  %66 = getelementptr inbounds nuw i8, ptr %.048.lcssa, i64 8
  store i32 0, ptr %66, align 4
  %67 = getelementptr inbounds nuw i8, ptr %.048.lcssa, i64 12
  store i32 21, ptr %67, align 4
  %68 = getelementptr inbounds nuw i8, ptr %.048.lcssa, i64 16
  store i32 %.055.lcssa, ptr %68, align 4
  %69 = getelementptr inbounds nuw i8, ptr %.048.lcssa, i64 20
  store i32 0, ptr %69, align 4
  %70 = ptrtoint ptr %.048.lcssa to i64
  br label %71

71:                                               ; preds = %.thread, %._crit_edge
  %.2 = phi i64 [ %70, %._crit_edge ], [ 0, %.thread ]
  ret i64 %.2
}